target datalayout = "e-m:e-p270:32:32-p271:32:32-p272:64:64-i64:64-i128:128-f80:128-n8:16:32:64-S128"
target triple = "x86_64-pc-linux-gnu"

%struct.AVFilterContext = type { ptr, ptr, ptr, ptr, ptr, i32, ptr, ptr, i32, ptr, ptr, i32, i32, ptr, ptr, ptr, ptr, i32, ptr, i32, i32 }
%struct.ShearContext = type { ptr, float, float, i32, [4 x i8], ptr, i32, i32, i32, %struct.FFDrawContext, %struct.FFDrawColor, i32, i32, [4 x i32], [4 x i32], [2 x ptr] }
%struct.FFDrawContext = type { ptr, i32, i32, [4 x i32], [4 x i8], [4 x i8], i8, i8, i32, i32, i32, [3 x [3 x double]] }
%struct.FFDrawColor = type { [4 x i8], [4 x %union.anon.2] }
%union.anon.2 = type { [4 x i32] }

@.str.19 = private unnamed_addr constant [5 x i8] c"none\00", align 1

; Function Attrs: cold nounwind optsize uwtable
define internal i32 @init(ptr noundef %0) #0 {
  %2 = alloca i32, align 4
  %3 = alloca ptr, align 8
  %4 = alloca ptr, align 8
  %5 = alloca i32, align 4
  store ptr %0, ptr %3, align 8, !tbaa !4
  call void @llvm.lifetime.start.p0(i64 8, ptr %4) #8
  %6 = load ptr, ptr %3, align 8, !tbaa !4
  %7 = getelementptr inbounds nuw %struct.AVFilterContext, ptr %6, i32 0, i32 9
  %8 = load ptr, ptr %7, align 8, !tbaa !9
  store ptr %8, ptr %4, align 8, !tbaa !22
  %9 = load ptr, ptr %4, align 8, !tbaa !22
  %10 = getelementptr inbounds nuw %struct.ShearContext, ptr %9, i32 0, i32 5
  %11 = load ptr, ptr %10, align 8, !tbaa !24
  %12 = call i32 @strcmp(ptr noundef %11, ptr noundef @.str.19) #9
  %13 = icmp ne i32 %12, 0
  br i1 %13, label %17, label %14

14:                                               ; preds = %1
  %15 = load ptr, ptr %4, align 8, !tbaa !22
  %16 = getelementptr inbounds nuw %struct.ShearContext, ptr %15, i32 0, i32 6
  store i32 0, ptr %16, align 8, !tbaa !30
  br label %32

17:                                               ; preds = %1
  %18 = load ptr, ptr %4, align 8, !tbaa !22
  %19 = getelementptr inbounds nuw %struct.ShearContext, ptr %18, i32 0, i32 4
  %20 = getelementptr inbounds [4 x i8], ptr %19, i64 0, i64 0
  %21 = load ptr, ptr %4, align 8, !tbaa !22
  %22 = getelementptr inbounds nuw %struct.ShearContext, ptr %21, i32 0, i32 5
  %23 = load ptr, ptr %22, align 8, !tbaa !24
  %24 = load ptr, ptr %3, align 8, !tbaa !4
  %25 = call i32 @av_parse_color(ptr noundef %20, ptr noundef %23, i32 noundef -1, ptr noundef %24)
  %26 = icmp sge i32 %25, 0
  br i1 %26, label %27, label %30

27:                                               ; preds = %17
  %28 = load ptr, ptr %4, align 8, !tbaa !22
  %29 = getelementptr inbounds nuw %struct.ShearContext, ptr %28, i32 0, i32 6
  store i32 1, ptr %29, align 8, !tbaa !30
  br label %31

30:                                               ; preds = %17
  store i32 -22, ptr %2, align 4
  store i32 1, ptr %5, align 4
  br label %33

31:                                               ; preds = %27
  br label %32

32:                                               ; preds = %31, %14
  store i32 0, ptr %2, align 4
  store i32 1, ptr %5, align 4
  br label %33

33:                                               ; preds = %32, %30
  call void @llvm.lifetime.end.p0(i64 8, ptr %4) #8
  %34 = load i32, ptr %2, align 4
  ret i32 %34
}