; Function Attrs: cold nounwind optsize uwtable
define internal range(i32 -22, 1) i32 @init(ptr noundef %0) #0 {
  %2 = getelementptr inbounds nuw i8, ptr %0, i64 72
  %3 = load ptr, ptr %2, align 8, !tbaa !4
  %4 = getelementptr inbounds nuw i8, ptr %3, i64 24
  %5 = load ptr, ptr %4, align 8, !tbaa !20
  %6 = tail call i32 @strcmp(ptr noundef nonnull dereferenceable(1) %5, ptr noundef nonnull dereferenceable(5) @.str.19) #9
  %.not = icmp eq i32 %6, 0
  br i1 %.not, label %.sink.split, label %7

7:                                                ; preds = %1
  %8 = getelementptr inbounds nuw i8, ptr %3, i64 20
  %9 = tail call i32 @av_parse_color(ptr noundef nonnull %8, ptr noundef nonnull %5, i32 noundef -1, ptr noundef nonnull %0) #10
  %10 = icmp sgt i32 %9, -1
  br i1 %10, label %.sink.split, label %12

.sink.split:                                      ; preds = %7, %1
  %.sink = phi i32 [ 0, %1 ], [ 1, %7 ]
  %11 = getelementptr inbounds nuw i8, ptr %3, i64 32
  store i32 %.sink, ptr %11, align 8, !tbaa !26
  br label %12

12:                                               ; preds = %.sink.split, %7
  %.0 = phi i32 [ -22, %7 ], [ 0, %.sink.split ]
  ret i32 %.0
}